target datalayout = "e-m:e-p270:32:32-p271:32:32-p272:64:64-i64:64-i128:128-f80:128-n8:16:32:64-S128"
target triple = "x86_64-pc-linux-gnu"

%struct.tiff_t = type { ptr, i32, i32, i16, i16, i16, i32, ptr, ptr, ptr }
%struct.dt_colorspaces_color_profile_t = type { i32, [512 x i8], [512 x i8], ptr, i32, i32, i32, i32, i32, i32 }

@.str.11 = private unnamed_addr constant [1 x i8] zeroinitializer, align 1

; Function Attrs: inlinehint nounwind uwtable
define internal i32 @_read_chunky_8_Lab(ptr noundef %0, i16 noundef zeroext %1) #4 {
  %3 = alloca i32, align 4
  %4 = alloca ptr, align 8
  %5 = alloca i16, align 2
  %6 = alloca ptr, align 8
  %7 = alloca ptr, align 8
  %8 = alloca ptr, align 8
  %9 = alloca i32, align 4
  %10 = alloca i32, align 4
  %11 = alloca ptr, align 8
  %12 = alloca ptr, align 8
  %13 = alloca ptr, align 8
  %14 = alloca i32, align 4
  store ptr %0, ptr %4, align 8, !tbaa !90
  store i16 %1, ptr %5, align 2, !tbaa !36
  call void @llvm.lifetime.start.p0(i64 8, ptr %6) #8
  %15 = call ptr @dt_colorspaces_get_profile(i32 noundef 6, ptr noundef @.str.11, i32 noundef 63)
  %16 = getelementptr inbounds nuw %struct.dt_colorspaces_color_profile_t, ptr %15, i32 0, i32 3
  %17 = load ptr, ptr %16, align 8, !tbaa !92
  store ptr %17, ptr %6, align 8, !tbaa !94
  call void @llvm.lifetime.start.p0(i64 8, ptr %7) #8
  %18 = call ptr @dt_colorspaces_get_profile(i32 noundef 4, ptr noundef @.str.11, i32 noundef 6)
  %19 = getelementptr inbounds nuw %struct.dt_colorspaces_color_profile_t, ptr %18, i32 0, i32 3
  %20 = load ptr, ptr %19, align 8, !tbaa !92
  store ptr %20, ptr %7, align 8, !tbaa !94
  call void @llvm.lifetime.start.p0(i64 8, ptr %8) #8
  %21 = load ptr, ptr %6, align 8, !tbaa !94
  %22 = load ptr, ptr %7, align 8, !tbaa !94
  %23 = call ptr @cmsCreateTransform(ptr noundef %21, i32 noundef 4849820, ptr noundef %22, i32 noundef 4456604, i32 noundef 0, i32 noundef 0)
  store ptr %23, ptr %8, align 8, !tbaa !94
  call void @llvm.lifetime.start.p0(i64 4, ptr %9) #8
  store i32 0, ptr %9, align 4, !tbaa !86
  br label %24

24:                                               ; preds = %140, %2
  %25 = load i32, ptr %9, align 4, !tbaa !86
  %26 = load ptr, ptr %4, align 8, !tbaa !90
  %27 = getelementptr inbounds nuw %struct.tiff_t, ptr %26, i32 0, i32 2
  %28 = load i32, ptr %27, align 4, !tbaa !73
  %29 = icmp ult i32 %25, %28
  br i1 %29, label %31, label %30

30:                                               ; preds = %24
  store i32 2, ptr %10, align 4
  br label %143

31:                                               ; preds = %24
  call void @llvm.lifetime.start.p0(i64 8, ptr %11) #8
  %32 = load ptr, ptr %4, align 8, !tbaa !90
  %33 = getelementptr inbounds nuw %struct.tiff_t, ptr %32, i32 0, i32 9
  %34 = load ptr, ptr %33, align 8, !tbaa !83
  store ptr %34, ptr %11, align 8, !tbaa !11
  call void @llvm.lifetime.start.p0(i64 8, ptr %12) #8
  %35 = load ptr, ptr %4, align 8, !tbaa !90
  %36 = getelementptr inbounds nuw %struct.tiff_t, ptr %35, i32 0, i32 8
  %37 = load ptr, ptr %36, align 8, !tbaa !82
  %38 = load i32, ptr %9, align 4, !tbaa !86
  %39 = zext i32 %38 to i64
  %40 = mul i64 4, %39
  %41 = load ptr, ptr %4, align 8, !tbaa !90
  %42 = getelementptr inbounds nuw %struct.tiff_t, ptr %41, i32 0, i32 1
  %43 = load i32, ptr %42, align 8, !tbaa !72
  %44 = zext i32 %43 to i64
  %45 = mul i64 %40, %44
  %46 = getelementptr inbounds nuw float, ptr %37, i64 %45
  store ptr %46, ptr %12, align 8, !tbaa !95
  call void @llvm.lifetime.start.p0(i64 8, ptr %13) #8
  %47 = load ptr, ptr %12, align 8, !tbaa !95
  store ptr %47, ptr %13, align 8, !tbaa !95
  %48 = load ptr, ptr %4, align 8, !tbaa !90
  %49 = getelementptr inbounds nuw %struct.tiff_t, ptr %48, i32 0, i32 0
  %50 = load ptr, ptr %49, align 8, !tbaa !35
  %51 = load ptr, ptr %11, align 8, !tbaa !11
  %52 = load i32, ptr %9, align 4, !tbaa !86
  %53 = call i32 @TIFFReadScanline(ptr noundef %50, ptr noundef %51, i32 noundef %52, i16 noundef zeroext 0)
  %54 = icmp eq i32 %53, -1
  br i1 %54, label %55, label %56

55:                                               ; preds = %31
  store i32 5, ptr %10, align 4
  br label %137

56:                                               ; preds = %31
  call void @llvm.lifetime.start.p0(i64 4, ptr %14) #8
  store i32 0, ptr %14, align 4, !tbaa !86
  br label %57

57:                                               ; preds = %118, %56
  %58 = load i32, ptr %14, align 4, !tbaa !86
  %59 = load ptr, ptr %4, align 8, !tbaa !90
  %60 = getelementptr inbounds nuw %struct.tiff_t, ptr %59, i32 0, i32 1
  %61 = load i32, ptr %60, align 8, !tbaa !72
  %62 = icmp ult i32 %58, %61
  br i1 %62, label %64, label %63

63:                                               ; preds = %57
  store i32 6, ptr %10, align 4
  call void @llvm.lifetime.end.p0(i64 4, ptr %14) #8
  br label %130

64:                                               ; preds = %57
  %65 = load ptr, ptr %11, align 8, !tbaa !11
  %66 = getelementptr inbounds i8, ptr %65, i64 0
  %67 = load i8, ptr %66, align 1, !tbaa !15
  %68 = uitofp i8 %67 to float
  %69 = fmul reassoc nsz arcp contract afn float %68, 0x3FD9191920000000
  %70 = load ptr, ptr %13, align 8, !tbaa !95
  %71 = getelementptr inbounds float, ptr %70, i64 0
  store float %69, ptr %71, align 4, !tbaa !96
  %72 = load ptr, ptr %4, align 8, !tbaa !90
  %73 = getelementptr inbounds nuw %struct.tiff_t, ptr %72, i32 0, i32 4
  %74 = load i16, ptr %73, align 2, !tbaa !75
  %75 = zext i16 %74 to i32
  %76 = icmp slt i32 %75, 3
  br i1 %76, label %77, label %82

77:                                               ; preds = %64
  %78 = load ptr, ptr %13, align 8, !tbaa !95
  %79 = getelementptr inbounds float, ptr %78, i64 2
  store float 0.000000e+00, ptr %79, align 4, !tbaa !96
  %80 = load ptr, ptr %13, align 8, !tbaa !95
  %81 = getelementptr inbounds float, ptr %80, i64 1
  store float 0.000000e+00, ptr %81, align 4, !tbaa !96
  br label %115

82:                                               ; preds = %64
  %83 = load i16, ptr %5, align 2, !tbaa !36
  %84 = zext i16 %83 to i32
  %85 = icmp eq i32 %84, 8
  br i1 %85, label %86, label %99

86:                                               ; preds = %82
  %87 = load ptr, ptr %11, align 8, !tbaa !11
  %88 = getelementptr inbounds i8, ptr %87, i64 1
  %89 = load i8, ptr %88, align 1, !tbaa !15
  %90 = sitofp i8 %89 to float
  %91 = load ptr, ptr %13, align 8, !tbaa !95
  %92 = getelementptr inbounds float, ptr %91, i64 1
  store float %90, ptr %92, align 4, !tbaa !96
  %93 = load ptr, ptr %11, align 8, !tbaa !11
  %94 = getelementptr inbounds i8, ptr %93, i64 2
  %95 = load i8, ptr %94, align 1, !tbaa !15
  %96 = sitofp i8 %95 to float
  %97 = load ptr, ptr %13, align 8, !tbaa !95
  %98 = getelementptr inbounds float, ptr %97, i64 2
  store float %96, ptr %98, align 4, !tbaa !96
  br label %114

99:                                               ; preds = %82
  %100 = load ptr, ptr %11, align 8, !tbaa !11
  %101 = getelementptr inbounds i8, ptr %100, i64 1
  %102 = load i8, ptr %101, align 1, !tbaa !15
  %103 = uitofp i8 %102 to float
  %104 = fsub reassoc nsz arcp contract afn float %103, 1.280000e+02
  %105 = load ptr, ptr %13, align 8, !tbaa !95
  %106 = getelementptr inbounds float, ptr %105, i64 1
  store float %104, ptr %106, align 4, !tbaa !96
  %107 = load ptr, ptr %11, align 8, !tbaa !11
  %108 = getelementptr inbounds i8, ptr %107, i64 2
  %109 = load i8, ptr %108, align 1, !tbaa !15
  %110 = uitofp i8 %109 to float
  %111 = fsub reassoc nsz arcp contract afn float %110, 1.280000e+02
  %112 = load ptr, ptr %13, align 8, !tbaa !95
  %113 = getelementptr inbounds float, ptr %112, i64 2
  store float %111, ptr %113, align 4, !tbaa !96
  br label %114

114:                                              ; preds = %99, %86
  br label %115

115:                                              ; preds = %114, %77
  %116 = load ptr, ptr %13, align 8, !tbaa !95
  %117 = getelementptr inbounds float, ptr %116, i64 3
  store float 0.000000e+00, ptr %117, align 4, !tbaa !96
  br label %118

118:                                              ; preds = %115
  %119 = load i32, ptr %14, align 4, !tbaa !86
  %120 = add i32 %119, 1
  store i32 %120, ptr %14, align 4, !tbaa !86
  %121 = load ptr, ptr %4, align 8, !tbaa !90
  %122 = getelementptr inbounds nuw %struct.tiff_t, ptr %121, i32 0, i32 4
  %123 = load i16, ptr %122, align 2, !tbaa !75
  %124 = zext i16 %123 to i32
  %125 = load ptr, ptr %11, align 8, !tbaa !11
  %126 = sext i32 %124 to i64
  %127 = getelementptr inbounds i8, ptr %125, i64 %126
  store ptr %127, ptr %11, align 8, !tbaa !11
  %128 = load ptr, ptr %13, align 8, !tbaa !95
  %129 = getelementptr inbounds float, ptr %128, i64 4
  store ptr %129, ptr %13, align 8, !tbaa !95
  br label %57

130:                                              ; preds = %63
  %131 = load ptr, ptr %8, align 8, !tbaa !94
  %132 = load ptr, ptr %12, align 8, !tbaa !95
  %133 = load ptr, ptr %12, align 8, !tbaa !95
  %134 = load ptr, ptr %4, align 8, !tbaa !90
  %135 = getelementptr inbounds nuw %struct.tiff_t, ptr %134, i32 0, i32 1
  %136 = load i32, ptr %135, align 8, !tbaa !72
  call void @cmsDoTransform(ptr noundef %131, ptr noundef %132, ptr noundef %133, i32 noundef %136)
  store i32 0, ptr %10, align 4
  br label %137

137:                                              ; preds = %55, %130
  call void @llvm.lifetime.end.p0(i64 8, ptr %13) #8
  call void @llvm.lifetime.end.p0(i64 8, ptr %12) #8
  call void @llvm.lifetime.end.p0(i64 8, ptr %11) #8
  %138 = load i32, ptr %10, align 4
  switch i32 %138, label %143 [
    i32 0, label %139
  ]

139:                                              ; preds = %137
  br label %140

140:                                              ; preds = %139
  %141 = load i32, ptr %9, align 4, !tbaa !86
  %142 = add i32 %141, 1
  store i32 %142, ptr %9, align 4, !tbaa !86
  br label %24

143:                                              ; preds = %137, %30
  call void @llvm.lifetime.end.p0(i64 4, ptr %9) #8
  %144 = load i32, ptr %10, align 4
  switch i32 %144, label %149 [
    i32 2, label %145
    i32 5, label %147
  ]

145:                                              ; preds = %143
  %146 = load ptr, ptr %8, align 8, !tbaa !94
  call void @cmsDeleteTransform(ptr noundef %146)
  store i32 1, ptr %3, align 4
  store i32 1, ptr %10, align 4
  br label %149

147:                                              ; preds = %143
  %148 = load ptr, ptr %8, align 8, !tbaa !94
  call void @cmsDeleteTransform(ptr noundef %148)
  store i32 -1, ptr %3, align 4
  store i32 1, ptr %10, align 4
  br label %149

149:                                              ; preds = %147, %145, %143
  call void @llvm.lifetime.end.p0(i64 8, ptr %8) #8
  call void @llvm.lifetime.end.p0(i64 8, ptr %7) #8
  call void @llvm.lifetime.end.p0(i64 8, ptr %6) #8
  %150 = load i32, ptr %3, align 4
  ret i32 %150
}