; Function Attrs: inlinehint nounwind uwtable
define internal fastcc range(i32 -1, 2) i32 @_read_chunky_8_Lab(ptr noundef nonnull readonly captures(none) %0, i16 noundef zeroext %1) unnamed_addr #6 {
  %3 = tail call ptr @dt_colorspaces_get_profile(i32 noundef 6, ptr noundef nonnull @.str.11, i32 noundef 63) #11
  %4 = getelementptr inbounds nuw i8, ptr %3, i64 1032
  %5 = load ptr, ptr %4, align 8, !tbaa !83
  %6 = tail call ptr @dt_colorspaces_get_profile(i32 noundef 4, ptr noundef nonnull @.str.11, i32 noundef 6) #11
  %7 = getelementptr inbounds nuw i8, ptr %6, i64 1032
  %8 = load ptr, ptr %7, align 8, !tbaa !83
  %9 = tail call ptr @cmsCreateTransform(ptr noundef %5, i32 noundef 4849820, ptr noundef %8, i32 noundef 4456604, i32 noundef 0, i32 noundef 0) #11
  %10 = getelementptr inbounds nuw i8, ptr %0, i64 12
  %11 = load i32, ptr %10, align 4, !tbaa !69
  %.not67 = icmp eq i32 %11, 0
  br i1 %.not67, label %.thread49, label %.lr.ph63

.lr.ph63:                                         ; preds = %2
  %12 = getelementptr inbounds nuw i8, ptr %0, i64 48
  %13 = getelementptr inbounds nuw i8, ptr %0, i64 40
  %14 = getelementptr inbounds nuw i8, ptr %0, i64 8
  %15 = getelementptr inbounds nuw i8, ptr %0, i64 18
  %16 = icmp eq i16 %1, 8
  br i1 %16, label %.lr.ph63.split.us, label %.lr.ph63.split

.lr.ph63.split.us:                                ; preds = %.lr.ph63, %._crit_edge.us
  %indvars.iv78 = phi i64 [ %indvars.iv.next79, %._crit_edge.us ], [ 0, %.lr.ph63 ]
  %17 = load ptr, ptr %12, align 8, !tbaa !79
  %18 = load ptr, ptr %13, align 8, !tbaa !78
  %19 = shl nuw nsw i64 %indvars.iv78, 2
  %20 = load i32, ptr %14, align 8, !tbaa !68
  %21 = zext i32 %20 to i64
  %22 = mul i64 %19, %21
  %23 = getelementptr inbounds nuw float, ptr %18, i64 %22
  %24 = load ptr, ptr %0, align 8, !tbaa !31
  %25 = trunc nuw i64 %indvars.iv78 to i32
  %26 = tail call i32 @TIFFReadScanline(ptr noundef %24, ptr noundef %17, i32 noundef %25, i16 noundef zeroext 0) #11
  %.not.us = icmp eq i32 %26, -1
  br i1 %.not.us, label %.thread49, label %.preheader.us

._crit_edge.us:                                   ; preds = %.lr.ph.split.us65, %.lr.ph.split.us.us, %.preheader.us
  tail call void @cmsDoTransform(ptr noundef %9, ptr noundef %23, ptr noundef %23, i32 noundef %30) #11
  %indvars.iv.next79 = add nuw nsw i64 %indvars.iv78, 1
  %27 = load i32, ptr %10, align 4, !tbaa !69
  %28 = zext i32 %27 to i64
  %29 = icmp samesign ult i64 %indvars.iv.next79, %28
  br i1 %29, label %.lr.ph63.split.us, label %.thread49

.preheader.us:                                    ; preds = %.lr.ph63.split.us
  %30 = load i32, ptr %14, align 8, !tbaa !68
  %.not69 = icmp eq i32 %30, 0
  br i1 %.not69, label %._crit_edge.us, label %.lr.ph.us

.lr.ph.us:                                        ; preds = %.preheader.us
  %31 = load i16, ptr %15, align 2, !tbaa !71
  %32 = icmp ult i16 %31, 3
  %33 = zext i16 %31 to i64
  br i1 %32, label %.lr.ph.split.us.us, label %.lr.ph.split.us65

.lr.ph.split.us.us:                               ; preds = %.lr.ph.us, %.lr.ph.split.us.us
  %.055.us.us = phi i32 [ %40, %.lr.ph.split.us.us ], [ 0, %.lr.ph.us ]
  %.04254.us.us = phi ptr [ %42, %.lr.ph.split.us.us ], [ %23, %.lr.ph.us ]
  %.04453.us.us = phi ptr [ %41, %.lr.ph.split.us.us ], [ %17, %.lr.ph.us ]
  %34 = load i8, ptr %.04453.us.us, align 1, !tbaa !6
  %35 = uitofp i8 %34 to float
  %36 = fmul reassoc nsz arcp contract afn float %35, 0x3FD9191920000000
  store float %36, ptr %.04254.us.us, align 4, !tbaa !85
  %37 = getelementptr inbounds nuw i8, ptr %.04254.us.us, i64 8
  store float 0.000000e+00, ptr %37, align 4, !tbaa !85
  %38 = getelementptr inbounds nuw i8, ptr %.04254.us.us, i64 4
  store float 0.000000e+00, ptr %38, align 4, !tbaa !85
  %39 = getelementptr inbounds nuw i8, ptr %.04254.us.us, i64 12
  store float 0.000000e+00, ptr %39, align 4, !tbaa !85
  %40 = add nuw i32 %.055.us.us, 1
  %41 = getelementptr inbounds nuw i8, ptr %.04453.us.us, i64 %33
  %42 = getelementptr inbounds nuw i8, ptr %.04254.us.us, i64 16
  %exitcond77.not = icmp eq i32 %40, %30
  br i1 %exitcond77.not, label %._crit_edge.us, label %.lr.ph.split.us.us

.lr.ph.split.us65:                                ; preds = %.lr.ph.us, %.lr.ph.split.us65
  %.055.us56.us = phi i32 [ %55, %.lr.ph.split.us65 ], [ 0, %.lr.ph.us ]
  %.04254.us57.us = phi ptr [ %57, %.lr.ph.split.us65 ], [ %23, %.lr.ph.us ]
  %.04453.us58.us = phi ptr [ %56, %.lr.ph.split.us65 ], [ %17, %.lr.ph.us ]
  %43 = load i8, ptr %.04453.us58.us, align 1, !tbaa !6
  %44 = uitofp i8 %43 to float
  %45 = fmul reassoc nsz arcp contract afn float %44, 0x3FD9191920000000
  store float %45, ptr %.04254.us57.us, align 4, !tbaa !85
  %46 = getelementptr inbounds nuw i8, ptr %.04453.us58.us, i64 1
  %47 = load i8, ptr %46, align 1, !tbaa !6
  %48 = sitofp i8 %47 to float
  %49 = getelementptr inbounds nuw i8, ptr %.04254.us57.us, i64 4
  store float %48, ptr %49, align 4, !tbaa !85
  %50 = getelementptr inbounds nuw i8, ptr %.04453.us58.us, i64 2
  %51 = load i8, ptr %50, align 1, !tbaa !6
  %52 = sitofp i8 %51 to float
  %53 = getelementptr inbounds nuw i8, ptr %.04254.us57.us, i64 8
  store float %52, ptr %53, align 4, !tbaa !85
  %54 = getelementptr inbounds nuw i8, ptr %.04254.us57.us, i64 12
  store float 0.000000e+00, ptr %54, align 4, !tbaa !85
  %55 = add nuw i32 %.055.us56.us, 1
  %56 = getelementptr inbounds nuw i8, ptr %.04453.us58.us, i64 %33
  %57 = getelementptr inbounds nuw i8, ptr %.04254.us57.us, i64 16
  %exitcond76.not = icmp eq i32 %55, %30
  br i1 %exitcond76.not, label %._crit_edge.us, label %.lr.ph.split.us65

.lr.ph63.split:                                   ; preds = %.lr.ph63, %._crit_edge
  %indvars.iv = phi i64 [ %indvars.iv.next, %._crit_edge ], [ 0, %.lr.ph63 ]
  %58 = load ptr, ptr %12, align 8, !tbaa !79
  %59 = load ptr, ptr %13, align 8, !tbaa !78
  %60 = shl nuw nsw i64 %indvars.iv, 2
  %61 = load i32, ptr %14, align 8, !tbaa !68
  %62 = zext i32 %61 to i64
  %63 = mul i64 %60, %62
  %64 = getelementptr inbounds nuw float, ptr %59, i64 %63
  %65 = load ptr, ptr %0, align 8, !tbaa !31
  %66 = trunc nuw i64 %indvars.iv to i32
  %67 = tail call i32 @TIFFReadScanline(ptr noundef %65, ptr noundef %58, i32 noundef %66, i16 noundef zeroext 0) #11
  %.not = icmp eq i32 %67, -1
  br i1 %.not, label %.thread49, label %.preheader

.preheader:                                       ; preds = %.lr.ph63.split
  %68 = load i32, ptr %14, align 8, !tbaa !68
  %.not68 = icmp eq i32 %68, 0
  br i1 %.not68, label %._crit_edge, label %.lr.ph

.lr.ph:                                           ; preds = %.preheader
  %69 = load i16, ptr %15, align 2, !tbaa !71
  %70 = icmp ult i16 %69, 3
  %71 = zext i16 %69 to i64
  br i1 %70, label %.lr.ph.split.us, label %.lr.ph.split

.lr.ph.split.us:                                  ; preds = %.lr.ph, %.lr.ph.split.us
  %.055.us = phi i32 [ %78, %.lr.ph.split.us ], [ 0, %.lr.ph ]
  %.04254.us = phi ptr [ %80, %.lr.ph.split.us ], [ %64, %.lr.ph ]
  %.04453.us = phi ptr [ %79, %.lr.ph.split.us ], [ %58, %.lr.ph ]
  %72 = load i8, ptr %.04453.us, align 1, !tbaa !6
  %73 = uitofp i8 %72 to float
  %74 = fmul reassoc nsz arcp contract afn float %73, 0x3FD9191920000000
  store float %74, ptr %.04254.us, align 4, !tbaa !85
  %75 = getelementptr inbounds nuw i8, ptr %.04254.us, i64 8
  store float 0.000000e+00, ptr %75, align 4, !tbaa !85
  %76 = getelementptr inbounds nuw i8, ptr %.04254.us, i64 4
  store float 0.000000e+00, ptr %76, align 4, !tbaa !85
  %77 = getelementptr inbounds nuw i8, ptr %.04254.us, i64 12
  store float 0.000000e+00, ptr %77, align 4, !tbaa !85
  %78 = add nuw i32 %.055.us, 1
  %79 = getelementptr inbounds nuw i8, ptr %.04453.us, i64 %71
  %80 = getelementptr inbounds nuw i8, ptr %.04254.us, i64 16
  %exitcond74.not = icmp eq i32 %78, %68
  br i1 %exitcond74.not, label %._crit_edge, label %.lr.ph.split.us

.lr.ph.split:                                     ; preds = %.lr.ph, %.lr.ph.split
  %.055 = phi i32 [ %95, %.lr.ph.split ], [ 0, %.lr.ph ]
  %.04254 = phi ptr [ %97, %.lr.ph.split ], [ %64, %.lr.ph ]
  %.04453 = phi ptr [ %96, %.lr.ph.split ], [ %58, %.lr.ph ]
  %81 = load i8, ptr %.04453, align 1, !tbaa !6
  %82 = uitofp i8 %81 to float
  %83 = fmul reassoc nsz arcp contract afn float %82, 0x3FD9191920000000
  store float %83, ptr %.04254, align 4, !tbaa !85
  %84 = getelementptr inbounds nuw i8, ptr %.04453, i64 1
  %85 = load i8, ptr %84, align 1, !tbaa !6
  %86 = uitofp i8 %85 to float
  %87 = fadd reassoc nsz arcp contract afn float %86, -1.280000e+02
  %88 = getelementptr inbounds nuw i8, ptr %.04254, i64 4
  store float %87, ptr %88, align 4, !tbaa !85
  %89 = getelementptr inbounds nuw i8, ptr %.04453, i64 2
  %90 = load i8, ptr %89, align 1, !tbaa !6
  %91 = uitofp i8 %90 to float
  %92 = fadd reassoc nsz arcp contract afn float %91, -1.280000e+02
  %93 = getelementptr inbounds nuw i8, ptr %.04254, i64 8
  store float %92, ptr %93, align 4, !tbaa !85
  %94 = getelementptr inbounds nuw i8, ptr %.04254, i64 12
  store float 0.000000e+00, ptr %94, align 4, !tbaa !85
  %95 = add nuw i32 %.055, 1
  %96 = getelementptr inbounds nuw i8, ptr %.04453, i64 %71
  %97 = getelementptr inbounds nuw i8, ptr %.04254, i64 16
  %exitcond.not = icmp eq i32 %95, %68
  br i1 %exitcond.not, label %._crit_edge, label %.lr.ph.split

._crit_edge:                                      ; preds = %.lr.ph.split, %.lr.ph.split.us, %.preheader
  tail call void @cmsDoTransform(ptr noundef %9, ptr noundef %64, ptr noundef %64, i32 noundef %68) #11
  %indvars.iv.next = add nuw nsw i64 %indvars.iv, 1
  %98 = load i32, ptr %10, align 4, !tbaa !69
  %99 = zext i32 %98 to i64
  %100 = icmp samesign ult i64 %indvars.iv.next, %99
  br i1 %100, label %.lr.ph63.split, label %.thread49

.thread49:                                        ; preds = %.lr.ph63.split, %._crit_edge, %.lr.ph63.split.us, %._crit_edge.us, %2
  %.043 = phi i32 [ 1, %2 ], [ 1, %._crit_edge.us ], [ -1, %.lr.ph63.split.us ], [ 1, %._crit_edge ], [ -1, %.lr.ph63.split ]
  tail call void @cmsDeleteTransform(ptr noundef %9) #11
  ret i32 %.043
}